# SymbolsHelper-Confirmed: 0.4.0+lgpl amd64
libqzion.so.0a libqzion0a #MINVER#
 _ZN10QZionGroup10invalidateERK5QRectb@Base 0.4.0+lgpl
 _ZN10QZionGroup10invalidateERK7QRegionb@Base 0.4.0+lgpl
 _ZN10QZionGroup10setClipperEP14QZionRectangle@Base 0.4.0+lgpl
 _ZN10QZionGroup10wheelEventEP11QWheelEvent@Base 0.4.0+lgpl
 _ZN10QZionGroup11qt_metacallEN11QMetaObject4CallEiPPv@Base 0.4.0+lgpl
 _ZN10QZionGroup11qt_metacastEPKc@Base 0.4.0+lgpl
 _ZN10QZionGroup13paintInternalEP8QPainterRK5QRectRK7QRegionRK6QPointd@Base 0.4.0+lgpl
 _ZN10QZionGroup13updateChangesEv@Base 0.4.0+lgpl
 _ZN10QZionGroup14effectiveColorEv@Base 0.4.0+lgpl
 _ZN10QZionGroup14mouseMoveEventEP11QMouseEvent@Base 0.4.0+lgpl
 _ZN10QZionGroup15mousePressEventEP11QMouseEvent@Base 0.4.0+lgpl
 _ZN10QZionGroup16staticMetaObjectE@Base 0.4.0+lgpl
 _ZN10QZionGroup17mouseReleaseEventEP11QMouseEvent@Base 0.4.0+lgpl
 _ZN10QZionGroup19ensurePendingUpdateEv@Base 0.4.0+lgpl
 _ZN10QZionGroup5paintEP8QPainter@Base 0.4.0+lgpl
 _ZN10QZionGroup7changedEv@Base 0.4.0+lgpl
 _ZN10QZionGroup7setSizeERK5QSize@Base 0.4.0+lgpl
 _ZN10QZionGroup8setColorERK6QColor@Base 0.4.0+lgpl
 _ZN10QZionGroupC1EP19QZionAbstractCanvas@Base 0.4.0+lgpl
 _ZN10QZionGroupC2EP19QZionAbstractCanvas@Base 0.4.0+lgpl
 _ZN10QZionGroupD0Ev@Base 0.4.0+lgpl
 _ZN10QZionGroupD1Ev@Base 0.4.0+lgpl
 _ZN10QZionGroupD2Ev@Base 0.4.0+lgpl
 _ZN10QZionImage11qt_metacallEN11QMetaObject4CallEiPPv@Base 0.4.0+lgpl
 _ZN10QZionImage11qt_metacastEPKc@Base 0.4.0+lgpl
 _ZN10QZionImage16staticMetaObjectE@Base 0.4.0+lgpl
 _ZN10QZionImage4loadERK7QString@Base 0.4.0+lgpl
 _ZN10QZionImage5clearEv@Base 0.4.0+lgpl
 _ZN10QZionImage5paintEP8QPainter@Base 0.4.0+lgpl
 _ZN10QZionImage6borderEv@Base 0.4.0+lgpl
 _ZN10QZionImage6reloadEv@Base 0.4.0+lgpl
 _ZN10QZionImage7changedEv@Base 0.4.0+lgpl
 _ZN10QZionImage7setSizeERK5QSize@Base 0.4.0+lgpl
 _ZN10QZionImage8setColorERK6QColor@Base 0.4.0+lgpl
 _ZN10QZionImage9setBorderE16QZionImageBorder@Base 0.4.0+lgpl
 _ZN10QZionImage9setBorderEiiii@Base 0.4.0+lgpl
 _ZN10QZionImage9setPixmapERK7QPixmap@Base 0.4.0+lgpl
 _ZN10QZionImageC1EP19QZionAbstractCanvas@Base 0.4.0+lgpl
 _ZN10QZionImageC1EP19QZionAbstractCanvasRK6QImage@Base 0.4.0+lgpl
 _ZN10QZionImageC1EP19QZionAbstractCanvasRK7QPixmap@Base 0.4.0+lgpl
 _ZN10QZionImageC1EP19QZionAbstractCanvasRK7QString@Base 0.4.0+lgpl
 _ZN10QZionImageC2EP19QZionAbstractCanvas@Base 0.4.0+lgpl
 _ZN10QZionImageC2EP19QZionAbstractCanvasRK6QImage@Base 0.4.0+lgpl
 _ZN10QZionImageC2EP19QZionAbstractCanvasRK7QPixmap@Base 0.4.0+lgpl
 _ZN10QZionImageC2EP19QZionAbstractCanvasRK7QString@Base 0.4.0+lgpl
 _ZN10QZionImageD0Ev@Base 0.4.0+lgpl
 _ZN10QZionImageD1Ev@Base 0.4.0+lgpl
 _ZN10QZionImageD2Ev@Base 0.4.0+lgpl
 _ZN11QZionCanvas10invalidateERK5QRectb@Base 0.4.0+lgpl
 _ZN11QZionCanvas10invalidateERK7QRegionb@Base 0.4.0+lgpl
 _ZN11QZionCanvas10paintEventEP11QPaintEvent@Base 0.4.0+lgpl
 _ZN11QZionCanvas11qt_metacallEN11QMetaObject4CallEiPPv@Base 0.4.0+lgpl
 _ZN11QZionCanvas11qt_metacastEPKc@Base 0.4.0+lgpl
 _ZN11QZionCanvas13keyPressEventEP9QKeyEvent@Base 0.4.0+lgpl
 _ZN11QZionCanvas13updateChangesEv@Base 0.4.0+lgpl
 _ZN11QZionCanvas15keyReleaseEventEP9QKeyEvent@Base 0.4.0+lgpl
 _ZN11QZionCanvas16staticMetaObjectE@Base 0.4.0+lgpl
 _ZN11QZionCanvas19ensurePendingUpdateEv@Base 0.4.0+lgpl
 _ZN11QZionCanvas6resizeERK5QSize@Base 0.4.0+lgpl
 _ZN11QZionCanvas6resizeEii@Base 0.4.0+lgpl
 _ZN11QZionCanvas6widgetEv@Base 0.4.0+lgpl
 _ZN11QZionCanvas7setSizeERK5QSize@Base 0.4.0+lgpl
 _ZN11QZionCanvas7updatedERK7QRegion@Base 0.4.0+lgpl
 _ZN11QZionCanvasC1EP7QWidget@Base 0.4.0+lgpl
 _ZN11QZionCanvasC2EP7QWidget@Base 0.4.0+lgpl
 _ZN11QZionCanvasD0Ev@Base 0.4.0+lgpl
 _ZN11QZionCanvasD1Ev@Base 0.4.0+lgpl
 _ZN11QZionCanvasD2Ev@Base 0.4.0+lgpl
 _ZN11QZionObject10setClipperEP14QZionRectangle@Base 0.4.0+lgpl
 _ZN11QZionObject10setOpacityEi@Base 0.4.0+lgpl
 _ZN11QZionObject10setVisibleEb@Base 0.4.0+lgpl
 _ZN11QZionObject10stackAboveEPS_@Base 0.4.0+lgpl
 _ZN11QZionObject10stackBelowEPS_@Base 0.4.0+lgpl
 _ZN11QZionObject10wheelEventEP11QWheelEvent@Base 0.4.0+lgpl
 _ZN11QZionObject11qt_metacallEN11QMetaObject4CallEiPPv@Base 0.4.0+lgpl
 _ZN11QZionObject11qt_metacastEPKc@Base 0.4.0+lgpl
 _ZN11QZionObject11sizeChangedERK5QSize@Base 0.4.0+lgpl
 _ZN11QZionObject12setAttributeENS_10AttributesEb@Base 0.4.0+lgpl
 _ZN11QZionObject13paintInternalEP8QPainterRK5QRectRK7QRegionRK6QPointd@Base 0.4.0+lgpl
 _ZN11QZionObject13updateChangesEv@Base 0.4.0+lgpl
 _ZN11QZionObject14mouseMoveEventEP11QMouseEvent@Base 0.4.0+lgpl
 _ZN11QZionObject14setMouseEventsEb@Base 0.4.0+lgpl
 _ZN11QZionObject15mousePressEventEP11QMouseEvent@Base 0.4.0+lgpl
 _ZN11QZionObject16signalWheelEventEPS_P11QWheelEvent@Base 0.4.0+lgpl
 _ZN11QZionObject16staticMetaObjectE@Base 0.4.0+lgpl
 _ZN11QZionObject17canvasResizeEventEP12QResizeEvent@Base 0.4.0+lgpl
 _ZN11QZionObject17mouseReleaseEventEP11QMouseEvent@Base 0.4.0+lgpl
 _ZN11QZionObject20signalMouseMoveEventEPS_P11QMouseEvent@Base 0.4.0+lgpl
 _ZN11QZionObject21signalMousePressEventEPS_P11QMouseEvent@Base 0.4.0+lgpl
 _ZN11QZionObject23signalMouseReleaseEventEPS_P11QMouseEvent@Base 0.4.0+lgpl
 _ZN11QZionObject5lowerEv@Base 0.4.0+lgpl
 _ZN11QZionObject5raiseEv@Base 0.4.0+lgpl
 _ZN11QZionObject6setPosERK6QPoint@Base 0.4.0+lgpl
 _ZN11QZionObject7changedEv@Base 0.4.0+lgpl
 _ZN11QZionObject7setSizeERK5QSize@Base 0.4.0+lgpl
 _ZN11QZionObject7setSizeEii@Base 0.4.0+lgpl
 _ZN11QZionObject8setColorEiiii@Base 0.4.0+lgpl
 _ZN11QZionObject9setZValueEi@Base 0.4.0+lgpl
 _ZN11QZionObjectC1EP19QZionAbstractCanvas@Base 0.4.0+lgpl
 _ZN11QZionObjectC2EP19QZionAbstractCanvas@Base 0.4.0+lgpl
 _ZN11QZionObjectD0Ev@Base 0.4.0+lgpl
 _ZN11QZionObjectD1Ev@Base 0.4.0+lgpl
 _ZN11QZionObjectD2Ev@Base 0.4.0+lgpl
 _ZN14QZionRectangle10addClippeeEP11QZionObject@Base 0.4.0+lgpl
 _ZN14QZionRectangle11qt_metacallEN11QMetaObject4CallEiPPv@Base 0.4.0+lgpl
 _ZN14QZionRectangle11qt_metacastEPKc@Base 0.4.0+lgpl
 _ZN14QZionRectangle13removeClippeeEP11QZionObject@Base 0.4.0+lgpl
 _ZN14QZionRectangle16staticMetaObjectE@Base 0.4.0+lgpl
 _ZN14QZionRectangle5paintEP8QPainter@Base 0.4.0+lgpl
 _ZN14QZionRectangle7changedEv@Base 0.4.0+lgpl
 _ZN14QZionRectangle7setSizeERK5QSize@Base 0.4.0+lgpl
 _ZN14QZionRectangle8setColorERK6QColor@Base 0.4.0+lgpl
 _ZN14QZionRectangleC1EP19QZionAbstractCanvas@Base 0.4.0+lgpl
 _ZN14QZionRectangleC1EP19QZionAbstractCanvasRK6QColorRK5QSize@Base 0.4.0+lgpl
 _ZN14QZionRectangleC2EP19QZionAbstractCanvas@Base 0.4.0+lgpl
 _ZN14QZionRectangleC2EP19QZionAbstractCanvasRK6QColorRK5QSize@Base 0.4.0+lgpl
 _ZN14QZionRectangleD0Ev@Base 0.4.0+lgpl
 _ZN14QZionRectangleD1Ev@Base 0.4.0+lgpl
 _ZN14QZionRectangleD2Ev@Base 0.4.0+lgpl
 _ZN14QZionTextBlock11qt_metacallEN11QMetaObject4CallEiPPv@Base 0.4.0+lgpl
 _ZN14QZionTextBlock11qt_metacastEPKc@Base 0.4.0+lgpl
 _ZN14QZionTextBlock14preferredWidthEv@Base 0.4.0+lgpl
 _ZN14QZionTextBlock15contentsChangedEv@Base 0.4.0+lgpl
 _ZN14QZionTextBlock16staticMetaObjectE@Base 0.4.0+lgpl
 _ZN14QZionTextBlock17setPreferredWidthEi@Base 0.4.0+lgpl
 _ZN14QZionTextBlock20contentsLoadFinishedEv@Base 0.4.0+lgpl
 _ZN14QZionTextBlock5paintEP8QPainter@Base 0.4.0+lgpl
 _ZN14QZionTextBlock5scaleEv@Base 0.4.0+lgpl
 _ZN14QZionTextBlock7setSizeERK5QSize@Base 0.4.0+lgpl
 _ZN14QZionTextBlock7setTextERK7QString@Base 0.4.0+lgpl
 _ZN14QZionTextBlock7toImageEv@Base 0.4.0+lgpl
 _ZN14QZionTextBlock8setColorERK6QColor@Base 0.4.0+lgpl
 _ZN14QZionTextBlock8setScaleEd@Base 0.4.0+lgpl
 _ZN14QZionTextBlock8toPixmapEv@Base 0.4.0+lgpl
 _ZN14QZionTextBlockC1EP19QZionAbstractCanvas@Base 0.4.0+lgpl
 _ZN14QZionTextBlockC1EP19QZionAbstractCanvasRK7QString@Base 0.4.0+lgpl
 _ZN14QZionTextBlockC2EP19QZionAbstractCanvas@Base 0.4.0+lgpl
 _ZN14QZionTextBlockC2EP19QZionAbstractCanvasRK7QString@Base 0.4.0+lgpl
 _ZN14QZionTextBlockD0Ev@Base 0.4.0+lgpl
 _ZN14QZionTextBlockD1Ev@Base 0.4.0+lgpl
 _ZN14QZionTextBlockD2Ev@Base 0.4.0+lgpl
 _ZN16QZionTiledPixmap14tileRectAtSizeENS_14qzTilePositionE5QSize@Base 0.4.0+lgpl
 _ZN16QZionTiledPixmapC1E7QPixmap16QZionImageBorder@Base 0.4.0+lgpl
 _ZN16QZionTiledPixmapC2E7QPixmap16QZionImageBorder@Base 0.4.0+lgpl
 _ZN17QZionClippedGroup10setClipperEP14QZionRectangle@Base 0.4.0+lgpl
 _ZN17QZionClippedGroup11qt_metacallEN11QMetaObject4CallEiPPv@Base 0.4.0+lgpl
 _ZN17QZionClippedGroup11qt_metacastEPKc@Base 0.4.0+lgpl
 _ZN17QZionClippedGroup13paintInternalEP8QPainterRK5QRectRK7QRegionRK6QPointd@Base 0.4.0+lgpl
 _ZN17QZionClippedGroup16staticMetaObjectE@Base 0.4.0+lgpl
 _ZN17QZionClippedGroupC1EP19QZionAbstractCanvas@Base 0.4.0+lgpl
 _ZN17QZionClippedGroupC2EP19QZionAbstractCanvas@Base 0.4.0+lgpl
 _ZN17QZionClippedGroupD0Ev@Base 0.4.0+lgpl
 _ZN17QZionClippedGroupD1Ev@Base 0.4.0+lgpl
 _ZN17QZionClippedGroupD2Ev@Base 0.4.0+lgpl
 _ZN17QZionCustomObject11qt_metacallEN11QMetaObject4CallEiPPv@Base 0.4.0+lgpl
 _ZN17QZionCustomObject11qt_metacastEPKc@Base 0.4.0+lgpl
 _ZN17QZionCustomObject16staticMetaObjectE@Base 0.4.0+lgpl
 _ZN17QZionCustomObject7setSizeERK5QSize@Base 0.4.0+lgpl
 _ZN17QZionCustomObjectC1EP19QZionAbstractCanvas@Base 0.4.0+lgpl
 _ZN17QZionCustomObjectC2EP19QZionAbstractCanvas@Base 0.4.0+lgpl
 _ZN17QZionCustomObjectD0Ev@Base 0.4.0+lgpl
 _ZN17QZionCustomObjectD1Ev@Base 0.4.0+lgpl
 _ZN17QZionCustomObjectD2Ev@Base 0.4.0+lgpl
 _ZN18QZionCanvasPrivate10paintEventEP11QPaintEvent@Base 0.4.0+lgpl
 _ZN18QZionCanvasPrivate10wheelEventEP11QWheelEvent@Base 0.4.0+lgpl
 _ZN18QZionCanvasPrivate11resizeEventEP12QResizeEvent@Base 0.4.0+lgpl
 _ZN18QZionCanvasPrivate13keyPressEventEP9QKeyEvent@Base 0.4.0+lgpl
 _ZN18QZionCanvasPrivate14mouseMoveEventEP11QMouseEvent@Base 0.4.0+lgpl
 _ZN18QZionCanvasPrivate15keyReleaseEventEP9QKeyEvent@Base 0.4.0+lgpl
 _ZN18QZionCanvasPrivate15mousePressEventEP11QMouseEvent@Base 0.4.0+lgpl
 _ZN18QZionCanvasPrivate17mouseReleaseEventEP11QMouseEvent@Base 0.4.0+lgpl
 _ZN18QZionCanvasPrivateC1EP7QWidget@Base 0.4.0+lgpl
 _ZN18QZionCanvasPrivateC2EP7QWidget@Base 0.4.0+lgpl
 _ZN18QZionCanvasPrivateD0Ev@Base 0.4.0+lgpl
 _ZN18QZionCanvasPrivateD1Ev@Base 0.4.0+lgpl
 _ZN18QZionCanvasPrivateD2Ev@Base 0.4.0+lgpl
 _ZN18QZionObjectPrivate17transparenceCacheERK5QSize@Base 0.4.0+lgpl
 _ZN18QZionObjectPrivate23transparencePixmapCacheE@Base 0.4.0+lgpl
 _ZN18QZionObjectPrivateC1Ev@Base 0.4.0+lgpl
 _ZN18QZionObjectPrivateC2Ev@Base 0.4.0+lgpl
 _ZN19QZionAbstractCanvas10stackAboveEP11QZionObjectS1_@Base 0.4.0+lgpl
 _ZN19QZionAbstractCanvas10stackBelowEP11QZionObjectS1_@Base 0.4.0+lgpl
 _ZN19QZionAbstractCanvas10wheelEventEP11QWheelEvent@Base 0.4.0+lgpl
 _ZN19QZionAbstractCanvas12removeObjectEP11QZionObject@Base 0.4.0+lgpl
 _ZN19QZionAbstractCanvas14mouseMoveEventEP11QMouseEvent@Base 0.4.0+lgpl
 _ZN19QZionAbstractCanvas15mousePressEventEP11QMouseEvent@Base 0.4.0+lgpl
 _ZN19QZionAbstractCanvas16wheelObjectEventEP11QZionObjectP11QWheelEvent@Base 0.4.0+lgpl
 _ZN19QZionAbstractCanvas17mouseEventHandlerEP11QMouseEventM11QZionObjectFvS1_EMS_FvPS2_S1_E@Base 0.4.0+lgpl
 _ZN19QZionAbstractCanvas17mouseReleaseEventEP11QMouseEvent@Base 0.4.0+lgpl
 _ZN19QZionAbstractCanvas20mouseObjectMoveEventEP11QZionObjectP11QMouseEvent@Base 0.4.0+lgpl
 _ZN19QZionAbstractCanvas21mouseObjectPressEventEP11QZionObjectP11QMouseEvent@Base 0.4.0+lgpl
 _ZN19QZionAbstractCanvas23mouseObjectReleaseEventEP11QZionObjectP11QMouseEvent@Base 0.4.0+lgpl
 _ZN19QZionAbstractCanvas5lowerEP11QZionObject@Base 0.4.0+lgpl
 _ZN19QZionAbstractCanvas5raiseEP11QZionObject@Base 0.4.0+lgpl
 _ZN19QZionAbstractCanvas9addObjectEP11QZionObject@Base 0.4.0+lgpl
 _ZN19QZionAbstractCanvas9setZValueEP11QZionObjecti@Base 0.4.0+lgpl
 _ZN19QZionAbstractCanvasC1Ev@Base 0.4.0+lgpl
 _ZN19QZionAbstractCanvasC2Ev@Base 0.4.0+lgpl
 _ZN19QZionAbstractCanvasD0Ev@Base 0.4.0+lgpl
 _ZN19QZionAbstractCanvasD1Ev@Base 0.4.0+lgpl
 _ZN19QZionAbstractCanvasD2Ev@Base 0.4.0+lgpl
 _ZN21QZionRectanglePrivateC1ERK5QSizeRK6QColor@Base 0.4.0+lgpl
 _ZN21QZionRectanglePrivateC2ERK5QSizeRK6QColor@Base 0.4.0+lgpl
 _ZN21QZionTextBlockPrivate11qt_metacallEN11QMetaObject4CallEiPPv@Base 0.4.0+lgpl
 _ZN21QZionTextBlockPrivate11qt_metacastEPKc@Base 0.4.0+lgpl
 _ZN21QZionTextBlockPrivate16staticMetaObjectE@Base 0.4.0+lgpl
 _ZN21QZionTextBlockPrivateD0Ev@Base 0.4.0+lgpl
 _ZN21QZionTextBlockPrivateD1Ev@Base 0.4.0+lgpl
 _ZN21QZionTextBlockPrivateD2Ev@Base 0.4.0+lgpl
 _ZN26QZionAbstractCanvasPrivate12grabbedItemsE@Base 0.4.0+lgpl
 _ZN26QZionAbstractCanvasPrivateD0Ev@Base 0.4.0+lgpl
 _ZN26QZionAbstractCanvasPrivateD1Ev@Base 0.4.0+lgpl
 _ZN26QZionAbstractCanvasPrivateD2Ev@Base 0.4.0+lgpl
 (optional=templinst)_ZN4QSetIP11QZionObjectED1Ev@Base 0.4.0+lgpl
 (optional=templinst)_ZN4QSetIP11QZionObjectED2Ev@Base 0.4.0+lgpl
 (optional=templinst)_ZN5QHashIP11QZionObject15QHashDummyValueE11deleteNode2EPN9QHashData4NodeE@Base 0.4.0+lgpl
 (optional=templinst)_ZN5QHashIP11QZionObject15QHashDummyValueE13detach_helperEv@Base 0.4.0+lgpl
 (optional=templinst)_ZN5QHashIP11QZionObject15QHashDummyValueE13duplicateNodeEPN9QHashData4NodeEPv@Base 0.4.0+lgpl
 (optional=templinst)_ZN5QHashIP11QZionObject15QHashDummyValueE6removeERKS1_@Base 0.4.0+lgpl
 (optional=templinst)_ZN5QHashIP11QZionObject15QHashDummyValueED1Ev@Base 0.4.0+lgpl
 (optional=templinst)_ZN5QHashIP11QZionObject15QHashDummyValueED2Ev@Base 0.4.0+lgpl
 (optional=templinst)_ZN5QListIP11QZionObjectE13detach_helperEi@Base 0.4.0+lgpl
 (optional=templinst)_ZN5QListIP11QZionObjectE13detach_helperEv@Base 0.4.0+lgpl
 (optional=templinst)_ZN5QListIP11QZionObjectE18detach_helper_growEii@Base 0.4.0+lgpl
 (optional=templinst)_ZN5QListIP11QZionObjectE6appendERKS1_@Base 0.4.0+lgpl
 (optional=templinst)_ZN5QListIP11QZionObjectE9removeAllERKS1_@Base 0.4.0+lgpl
 (optional=templinst)_ZN5QListIP11QZionObjectED1Ev@Base 0.4.0+lgpl
 (optional=templinst)_ZN5QListIP11QZionObjectED2Ev@Base 0.4.0+lgpl
 _ZN7QStringD1Ev@Base 0.4.0+lgpl
 _ZN7QStringD2Ev@Base 0.4.0+lgpl
 _ZN9QZionText11qt_metacallEN11QMetaObject4CallEiPPv@Base 0.4.0+lgpl
 _ZN9QZionText11qt_metacastEPKc@Base 0.4.0+lgpl
 _ZN9QZionText12setAlignmentERK7QPointF@Base 0.4.0+lgpl
 _ZN9QZionText12setTextColorERK6QColor@Base 0.4.0+lgpl
 _ZN9QZionText14setShadowColorERK6QColor@Base 0.4.0+lgpl
 _ZN9QZionText15setOutlineColorERK6QColor@Base 0.4.0+lgpl
 _ZN9QZionText16staticMetaObjectE@Base 0.4.0+lgpl
 _ZN9QZionText20setEllipsisAlignmentEd@Base 0.4.0+lgpl
 _ZN9QZionText5paintEP8QPainter@Base 0.4.0+lgpl
 _ZN9QZionText7changedEv@Base 0.4.0+lgpl
 _ZN9QZionText7setFontERK5QFont@Base 0.4.0+lgpl
 _ZN9QZionText7setSizeERK5QSize@Base 0.4.0+lgpl
 _ZN9QZionText7setTextERK7QString@Base 0.4.0+lgpl
 _ZN9QZionText8setColorERK6QColor@Base 0.4.0+lgpl
 _ZN9QZionText8setStyleENS_9TextStyleE@Base 0.4.0+lgpl
 _ZN9QZionTextC1EP19QZionAbstractCanvas@Base 0.4.0+lgpl
 _ZN9QZionTextC1EP19QZionAbstractCanvasRK7QStringRK5QFontRK6QColor@Base 0.4.0+lgpl
 _ZN9QZionTextC2EP19QZionAbstractCanvas@Base 0.4.0+lgpl
 _ZN9QZionTextC2EP19QZionAbstractCanvasRK7QStringRK5QFontRK6QColor@Base 0.4.0+lgpl
 _ZN9QZionTextD0Ev@Base 0.4.0+lgpl
 _ZN9QZionTextD1Ev@Base 0.4.0+lgpl
 _ZN9QZionTextD2Ev@Base 0.4.0+lgpl
 _ZNK10QZionGroup10mapToLocalERK6QPoint@Base 0.4.0+lgpl
 _ZNK10QZionGroup10metaObjectEv@Base 0.4.0+lgpl
 _ZNK10QZionGroup11canvasWidthEv@Base 0.4.0+lgpl
 _ZNK10QZionGroup12canvasHeightEv@Base 0.4.0+lgpl
 _ZNK10QZionGroup4rectEv@Base 0.4.0+lgpl
 _ZNK10QZionGroup4sizeEv@Base 0.4.0+lgpl
 _ZNK10QZionGroup5colorEv@Base 0.4.0+lgpl
 _ZNK10QZionGroup8containsERK6QPoint@Base 0.4.0+lgpl
 _ZNK10QZionImage10metaObjectEv@Base 0.4.0+lgpl
 _ZNK10QZionImage4rectEv@Base 0.4.0+lgpl
 _ZNK10QZionImage4sizeEv@Base 0.4.0+lgpl
 _ZNK10QZionImage5colorEv@Base 0.4.0+lgpl
 _ZNK10QZionImage6pixmapEv@Base 0.4.0+lgpl
 _ZNK11QZionCanvas10metaObjectEv@Base 0.4.0+lgpl
 _ZNK11QZionCanvas11canvasWidthEv@Base 0.4.0+lgpl
 _ZNK11QZionCanvas12canvasHeightEv@Base 0.4.0+lgpl
 _ZNK11QZionCanvas4sizeEv@Base 0.4.0+lgpl
 _ZNK11QZionCanvas8sizeHintEv@Base 0.4.0+lgpl
 _ZNK11QZionObject10metaObjectEv@Base 0.4.0+lgpl
 _ZNK11QZionObject11mouseEventsEv@Base 0.4.0+lgpl
 _ZNK11QZionObject13effectiveRectEv@Base 0.4.0+lgpl
 _ZNK11QZionObject13testAttributeENS_10AttributesE@Base 0.4.0+lgpl
 _ZNK11QZionObject14effectiveColorEv@Base 0.4.0+lgpl
 _ZNK11QZionObject3posEv@Base 0.4.0+lgpl
 _ZNK11QZionObject6canvasEv@Base 0.4.0+lgpl
 _ZNK11QZionObject6zValueEv@Base 0.4.0+lgpl
 _ZNK11QZionObject7clipperEv@Base 0.4.0+lgpl
 _ZNK11QZionObject7layeredEv@Base 0.4.0+lgpl
 _ZNK11QZionObject7opacityEv@Base 0.4.0+lgpl
 _ZNK11QZionObject7visibleEv@Base 0.4.0+lgpl
 _ZNK11QZionObject8containsERK6QPoint@Base 0.4.0+lgpl
 _ZNK11QZionObject9isClipperEv@Base 0.4.0+lgpl
 _ZNK14QZionRectangle10metaObjectEv@Base 0.4.0+lgpl
 _ZNK14QZionRectangle13effectiveRectEv@Base 0.4.0+lgpl
 _ZNK14QZionRectangle14effectiveColorEv@Base 0.4.0+lgpl
 _ZNK14QZionRectangle4rectEv@Base 0.4.0+lgpl
 _ZNK14QZionRectangle4sizeEv@Base 0.4.0+lgpl
 _ZNK14QZionRectangle5colorEv@Base 0.4.0+lgpl
 _ZNK14QZionRectangle9isClipperEv@Base 0.4.0+lgpl
 _ZNK14QZionTextBlock10metaObjectEv@Base 0.4.0+lgpl
 _ZNK14QZionTextBlock12contentsSizeEv@Base 0.4.0+lgpl
 _ZNK14QZionTextBlock4rectEv@Base 0.4.0+lgpl
 _ZNK14QZionTextBlock4sizeEv@Base 0.4.0+lgpl
 _ZNK14QZionTextBlock4textEv@Base 0.4.0+lgpl
 _ZNK14QZionTextBlock5colorEv@Base 0.4.0+lgpl
 _ZNK17QZionClippedGroup10metaObjectEv@Base 0.4.0+lgpl
 _ZNK17QZionClippedGroup4rectEv@Base 0.4.0+lgpl
 _ZNK17QZionCustomObject10metaObjectEv@Base 0.4.0+lgpl
 _ZNK17QZionCustomObject4sizeEv@Base 0.4.0+lgpl
 _ZNK19QZionAbstractCanvas10mapToLocalERK6QPoint@Base 0.4.0+lgpl
 _ZNK19QZionAbstractCanvas11canvasWidthEv@Base 0.4.0+lgpl
 _ZNK19QZionAbstractCanvas12canvasHeightEv@Base 0.4.0+lgpl
 _ZNK19QZionAbstractCanvas5itemsEv@Base 0.4.0+lgpl
 _ZNK19QZionAbstractCanvas6itemAtERK6QPoint@Base 0.4.0+lgpl
 _ZNK19QZionAbstractCanvas6itemAtEii@Base 0.4.0+lgpl
 _ZNK19QZionAbstractCanvas6zValueEP11QZionObject@Base 0.4.0+lgpl
 _ZNK19QZionAbstractCanvas7itemsAtERK6QPoint@Base 0.4.0+lgpl
 _ZNK19QZionAbstractCanvas7itemsAtEii@Base 0.4.0+lgpl
 _ZNK21QZionTextBlockPrivate10metaObjectEv@Base 0.4.0+lgpl
 (optional=templinst)_ZNK5QListIP11QZionObjectE7indexOfERKS1_i@Base 0.4.0+lgpl
 _ZNK9QZionText10metaObjectEv@Base 0.4.0+lgpl
 _ZNK9QZionText11shadowColorEv@Base 0.4.0+lgpl
 _ZNK9QZionText12outlineColorEv@Base 0.4.0+lgpl
 _ZNK9QZionText17ellipsisAlignmentEv@Base 0.4.0+lgpl
 _ZNK9QZionText4fontEv@Base 0.4.0+lgpl
 _ZNK9QZionText4rectEv@Base 0.4.0+lgpl
 _ZNK9QZionText4sizeEv@Base 0.4.0+lgpl
 _ZNK9QZionText4textEv@Base 0.4.0+lgpl
 _ZNK9QZionText5colorEv@Base 0.4.0+lgpl
 _ZNK9QZionText5styleEv@Base 0.4.0+lgpl
 _ZNK9QZionText9alignmentEv@Base 0.4.0+lgpl
 _ZNK9QZionText9textColorEv@Base 0.4.0+lgpl
 _ZTI10QZionGroup@Base 0.4.0+lgpl
 _ZTI10QZionImage@Base 0.4.0+lgpl
 _ZTI11QZionCanvas@Base 0.4.0+lgpl
 _ZTI11QZionObject@Base 0.4.0+lgpl
 _ZTI14QZionRectangle@Base 0.4.0+lgpl
 _ZTI14QZionTextBlock@Base 0.4.0+lgpl
 _ZTI17QZionClippedGroup@Base 0.4.0+lgpl
 _ZTI17QZionCustomObject@Base 0.4.0+lgpl
 _ZTI18QZionCanvasPrivate@Base 0.4.0+lgpl
 _ZTI19QZionAbstractCanvas@Base 0.4.0+lgpl
 _ZTI21QZionTextBlockPrivate@Base 0.4.0+lgpl
 _ZTI26QZionAbstractCanvasPrivate@Base 0.4.0+lgpl
 _ZTI9QZionText@Base 0.4.0+lgpl
 _ZTS10QZionGroup@Base 0.4.0+lgpl
 _ZTS10QZionImage@Base 0.4.0+lgpl
 _ZTS11QZionCanvas@Base 0.4.0+lgpl
 _ZTS11QZionObject@Base 0.4.0+lgpl
 _ZTS14QZionRectangle@Base 0.4.0+lgpl
 _ZTS14QZionTextBlock@Base 0.4.0+lgpl
 _ZTS17QZionClippedGroup@Base 0.4.0+lgpl
 _ZTS17QZionCustomObject@Base 0.4.0+lgpl
 _ZTS18QZionCanvasPrivate@Base 0.4.0+lgpl
 _ZTS19QZionAbstractCanvas@Base 0.4.0+lgpl
 _ZTS21QZionTextBlockPrivate@Base 0.4.0+lgpl
 _ZTS26QZionAbstractCanvasPrivate@Base 0.4.0+lgpl
 _ZTS9QZionText@Base 0.4.0+lgpl
 _ZTV10QZionGroup@Base 0.4.0+lgpl
 _ZTV10QZionImage@Base 0.4.0+lgpl
 _ZTV11QZionCanvas@Base 0.4.0+lgpl
 _ZTV11QZionObject@Base 0.4.0+lgpl
 _ZTV14QZionRectangle@Base 0.4.0+lgpl
 _ZTV14QZionTextBlock@Base 0.4.0+lgpl
 _ZTV17QZionClippedGroup@Base 0.4.0+lgpl
 _ZTV17QZionCustomObject@Base 0.4.0+lgpl
 _ZTV18QZionCanvasPrivate@Base 0.4.0+lgpl
 _ZTV19QZionAbstractCanvas@Base 0.4.0+lgpl
 _ZTV21QZionTextBlockPrivate@Base 0.4.0+lgpl
 _ZTV26QZionAbstractCanvasPrivate@Base 0.4.0+lgpl
 _ZTV9QZionText@Base 0.4.0+lgpl
 (c++)"non-virtual thunk to QZionCanvas::canvasHeight() const@Base" 0.4.0+lgpl
 (c++)"non-virtual thunk to QZionCanvas::canvasWidth() const@Base" 0.4.0+lgpl
 (c++)"non-virtual thunk to QZionCanvas::ensurePendingUpdate()@Base" 0.4.0+lgpl
 (c++)"non-virtual thunk to QZionCanvas::invalidate(QRect const&, bool)@Base" 0.4.0+lgpl
 (c++)"non-virtual thunk to QZionCanvas::invalidate(QRegion const&, bool)@Base" 0.4.0+lgpl
 (c++)"non-virtual thunk to QZionCanvas::setSize(QSize const&)@Base" 0.4.0+lgpl
 (c++)"non-virtual thunk to QZionCanvas::size() const@Base" 0.4.0+lgpl
 (c++)"non-virtual thunk to QZionCanvas::updateChanges()@Base" 0.4.0+lgpl
 (c++)"non-virtual thunk to QZionCanvas::~QZionCanvas()@Base" 0.4.0+lgpl
 (c++)"non-virtual thunk to QZionCanvasPrivate::~QZionCanvasPrivate()@Base" 0.4.0+lgpl
 (c++)"non-virtual thunk to QZionClippedGroup::~QZionClippedGroup()@Base" 0.4.0+lgpl
 (c++)"non-virtual thunk to QZionGroup::canvasHeight() const@Base" 0.4.0+lgpl
 (c++)"non-virtual thunk to QZionGroup::canvasWidth() const@Base" 0.4.0+lgpl
 (c++)"non-virtual thunk to QZionGroup::ensurePendingUpdate()@Base" 0.4.0+lgpl
 (c++)"non-virtual thunk to QZionGroup::invalidate(QRect const&, bool)@Base" 0.4.0+lgpl
 (c++)"non-virtual thunk to QZionGroup::invalidate(QRegion const&, bool)@Base" 0.4.0+lgpl
 (c++)"non-virtual thunk to QZionGroup::mapToLocal(QPoint const&) const@Base" 0.4.0+lgpl
 (c++)"non-virtual thunk to QZionGroup::mouseMoveEvent(QMouseEvent*)@Base" 0.4.0+lgpl
 (c++)"non-virtual thunk to QZionGroup::mousePressEvent(QMouseEvent*)@Base" 0.4.0+lgpl
 (c++)"non-virtual thunk to QZionGroup::mouseReleaseEvent(QMouseEvent*)@Base" 0.4.0+lgpl
 (c++)"non-virtual thunk to QZionGroup::setSize(QSize const&)@Base" 0.4.0+lgpl
 (c++)"non-virtual thunk to QZionGroup::size() const@Base" 0.4.0+lgpl
 (c++)"non-virtual thunk to QZionGroup::updateChanges()@Base" 0.4.0+lgpl
 (c++)"non-virtual thunk to QZionGroup::wheelEvent(QWheelEvent*)@Base" 0.4.0+lgpl
 (c++)"non-virtual thunk to QZionGroup::~QZionGroup()@Base" 0.4.0+lgpl
